; Function Attrs: mustprogress nounwind uwtable
define void @_ZN6duckdb8Pipeline11ClearSourceEv(ptr noundef nonnull align 8 dereferenceable(224) %0) local_unnamed_addr #4 align 2 personality ptr @__gxx_personality_v0 {
  %2 = getelementptr inbounds nuw i8, ptr %0, i64 72
  %3 = load ptr, ptr %2, align 8, !tbaa !542
  store ptr null, ptr %2, align 8, !tbaa !542
  %.not.i.i.i = icmp eq ptr %3, null
  br i1 %.not.i.i.i, label %_ZN6duckdb10unique_ptrINS_17GlobalSourceStateESt14default_deleteIS1_ELb1EE5resetEPS1_.exit, label %_ZNKSt14default_deleteIN6duckdb17GlobalSourceStateEEclEPS1_.exit.i.i.i

_ZNKSt14default_deleteIN6duckdb17GlobalSourceStateEEclEPS1_.exit.i.i.i: ; preds = %1
  %4 = load ptr, ptr %3, align 8, !tbaa !54
  %5 = getelementptr inbounds nuw i8, ptr %4, i64 8
  %6 = load ptr, ptr %5, align 8
  tail call void %6(ptr noundef nonnull align 8 dereferenceable(80) %3) #35
  br label %_ZN6duckdb10unique_ptrINS_17GlobalSourceStateESt14default_deleteIS1_ELb1EE5resetEPS1_.exit

_ZN6duckdb10unique_ptrINS_17GlobalSourceStateESt14default_deleteIS1_ELb1EE5resetEPS1_.exit: ; preds = %1, %_ZNKSt14default_deleteIN6duckdb17GlobalSourceStateEEclEPS1_.exit.i.i.i
  %7 = getelementptr inbounds nuw i8, ptr %0, i64 176
  %8 = getelementptr inbounds nuw i8, ptr %0, i64 192
  %9 = load ptr, ptr %8, align 8, !tbaa !782
  invoke void @_ZNSt8_Rb_treeImmSt9_IdentityImESt4lessImESaImEE8_M_eraseEPSt13_Rb_tree_nodeImE(ptr noundef nonnull align 8 dereferenceable(48) %7, ptr noundef %9)
          to label %_ZNSt8multisetImSt4lessImESaImEE5clearEv.exit unwind label %10

10:                                               ; preds = %_ZN6duckdb10unique_ptrINS_17GlobalSourceStateESt14default_deleteIS1_ELb1EE5resetEPS1_.exit
  %11 = landingpad { ptr, i32 }
          catch ptr null
  %12 = extractvalue { ptr, i32 } %11, 0
  tail call void @__clang_call_terminate(ptr %12) #39
  unreachable

_ZNSt8multisetImSt4lessImESaImEE5clearEv.exit:    ; preds = %_ZN6duckdb10unique_ptrINS_17GlobalSourceStateESt14default_deleteIS1_ELb1EE5resetEPS1_.exit
  %13 = getelementptr inbounds nuw i8, ptr %0, i64 184
  store ptr null, ptr %8, align 8, !tbaa !782
  %14 = getelementptr inbounds nuw i8, ptr %0, i64 200
  store ptr %13, ptr %14, align 8, !tbaa !783
  %15 = getelementptr inbounds nuw i8, ptr %0, i64 208
  store ptr %13, ptr %15, align 8, !tbaa !784
  %16 = getelementptr inbounds nuw i8, ptr %0, i64 216
  store i64 0, ptr %16, align 8, !tbaa !785
  ret void
}